target datalayout = "e-m:e-p270:32:32-p271:32:32-p272:64:64-i64:64-i128:128-f80:128-n8:16:32:64-S128"
target triple = "x86_64-pc-linux-gnu"

@.str.18 = private unnamed_addr constant [7 x i8] c"%s: %s\00", align 1
@.str.19 = private unnamed_addr constant [3 x i8] c"%s\00", align 1
@.str.31 = private unnamed_addr constant [6 x i8] c"%.14g\00", align 1

; Function Attrs: nounwind uwtable
define internal i32 @pushresult(ptr noundef %0, i32 noundef %1, ptr noundef %2) #0 {
  %4 = alloca i32, align 4
  %5 = alloca ptr, align 8
  %6 = alloca i32, align 4
  %7 = alloca ptr, align 8
  %8 = alloca i32, align 4
  %9 = alloca i32, align 4
  store ptr %0, ptr %5, align 8, !tbaa !4
  store i32 %1, ptr %6, align 4, !tbaa !14
  store ptr %2, ptr %7, align 8, !tbaa !16
  call void @llvm.lifetime.start.p0(i64 4, ptr %8) #6
  %10 = call ptr @__errno_location() #7
  %11 = load i32, ptr %10, align 4, !tbaa !14
  store i32 %11, ptr %8, align 4, !tbaa !14
  %12 = load i32, ptr %6, align 4, !tbaa !14
  %13 = icmp ne i32 %12, 0
  br i1 %13, label %14, label %16

14:                                               ; preds = %3
  %15 = load ptr, ptr %5, align 8, !tbaa !4
  call void @lua_pushboolean(ptr noundef %15, i32 noundef 1)
  store i32 1, ptr %4, align 4
  store i32 1, ptr %9, align 4
  br label %35

16:                                               ; preds = %3
  %17 = load ptr, ptr %5, align 8, !tbaa !4
  call void @lua_pushnil(ptr noundef %17)
  %18 = load ptr, ptr %7, align 8, !tbaa !16
  %19 = icmp ne ptr %18, null
  br i1 %19, label %20, label %26

20:                                               ; preds = %16
  %21 = load ptr, ptr %5, align 8, !tbaa !4
  %22 = load ptr, ptr %7, align 8, !tbaa !16
  %23 = load i32, ptr %8, align 4, !tbaa !14
  %24 = call ptr @strerror(i32 noundef %23) #6
  %25 = call ptr (ptr, ptr, ...) @lua_pushfstring(ptr noundef %21, ptr noundef @.str.18, ptr noundef %22, ptr noundef %24)
  br label %31

26:                                               ; preds = %16
  %27 = load ptr, ptr %5, align 8, !tbaa !4
  %28 = load i32, ptr %8, align 4, !tbaa !14
  %29 = call ptr @strerror(i32 noundef %28) #6
  %30 = call ptr (ptr, ptr, ...) @lua_pushfstring(ptr noundef %27, ptr noundef @.str.19, ptr noundef %29)
  br label %31

31:                                               ; preds = %26, %20
  %32 = load ptr, ptr %5, align 8, !tbaa !4
  %33 = load i32, ptr %8, align 4, !tbaa !14
  %34 = sext i32 %33 to i64
  call void @lua_pushinteger(ptr noundef %32, i64 noundef %34)
  store i32 3, ptr %4, align 4
  store i32 1, ptr %9, align 4
  br label %35

35:                                               ; preds = %31, %14
  call void @llvm.lifetime.end.p0(i64 4, ptr %8) #6
  %36 = load i32, ptr %4, align 4
  ret i32 %36
}

; Function Attrs: nounwind uwtable
define internal i32 @g_write(ptr noundef %0, ptr noundef %1, i32 noundef %2) #0 {
  %4 = alloca ptr, align 8
  %5 = alloca ptr, align 8
  %6 = alloca i32, align 4
  %7 = alloca i32, align 4
  %8 = alloca i32, align 4
  %9 = alloca i64, align 8
  %10 = alloca ptr, align 8
  store ptr %0, ptr %4, align 8, !tbaa !4
  store ptr %1, ptr %5, align 8, !tbaa !9
  store i32 %2, ptr %6, align 4, !tbaa !14
  call void @llvm.lifetime.start.p0(i64 4, ptr %7) #6
  %11 = load ptr, ptr %4, align 8, !tbaa !4
  %12 = call i32 @lua_gettop(ptr noundef %11)
  %13 = sub nsw i32 %12, 1
  store i32 %13, ptr %7, align 4, !tbaa !14
  call void @llvm.lifetime.start.p0(i64 4, ptr %8) #6
  store i32 1, ptr %8, align 4, !tbaa !14
  br label %14

14:                                               ; preds = %53, %3
  %15 = load i32, ptr %7, align 4, !tbaa !14
  %16 = add nsw i32 %15, -1
  store i32 %16, ptr %7, align 4, !tbaa !14
  %17 = icmp ne i32 %15, 0
  br i1 %17, label %18, label %56

18:                                               ; preds = %14
  %19 = load ptr, ptr %4, align 8, !tbaa !4
  %20 = load i32, ptr %6, align 4, !tbaa !14
  %21 = call i32 @lua_type(ptr noundef %19, i32 noundef %20)
  %22 = icmp eq i32 %21, 3
  br i1 %22, label %23, label %36

23:                                               ; preds = %18
  %24 = load i32, ptr %8, align 4, !tbaa !14
  %25 = icmp ne i32 %24, 0
  br i1 %25, label %26, label %33

26:                                               ; preds = %23
  %27 = load ptr, ptr %5, align 8, !tbaa !9
  %28 = load ptr, ptr %4, align 8, !tbaa !4
  %29 = load i32, ptr %6, align 4, !tbaa !14
  %30 = call double @lua_tonumber(ptr noundef %28, i32 noundef %29)
  %31 = call i32 (ptr, ptr, ...) @fprintf(ptr noundef %27, ptr noundef @.str.31, double noundef %30) #6
  %32 = icmp sgt i32 %31, 0
  br label %33

33:                                               ; preds = %26, %23
  %34 = phi i1 [ false, %23 ], [ %32, %26 ]
  %35 = zext i1 %34 to i32
  store i32 %35, ptr %8, align 4, !tbaa !14
  br label %52

36:                                               ; preds = %18
  call void @llvm.lifetime.start.p0(i64 8, ptr %9) #6
  call void @llvm.lifetime.start.p0(i64 8, ptr %10) #6
  %37 = load ptr, ptr %4, align 8, !tbaa !4
  %38 = load i32, ptr %6, align 4, !tbaa !14
  %39 = call ptr @luaL_checklstring(ptr noundef %37, i32 noundef %38, ptr noundef %9)
  store ptr %39, ptr %10, align 8, !tbaa !16
  %40 = load i32, ptr %8, align 4, !tbaa !14
  %41 = icmp ne i32 %40, 0
  br i1 %41, label %42, label %49

42:                                               ; preds = %36
  %43 = load ptr, ptr %10, align 8, !tbaa !16
  %44 = load i64, ptr %9, align 8, !tbaa !18
  %45 = load ptr, ptr %5, align 8, !tbaa !9
  %46 = call i64 @fwrite(ptr noundef %43, i64 noundef 1, i64 noundef %44, ptr noundef %45)
  %47 = load i64, ptr %9, align 8, !tbaa !18
  %48 = icmp eq i64 %46, %47
  br label %49

49:                                               ; preds = %42, %36
  %50 = phi i1 [ false, %36 ], [ %48, %42 ]
  %51 = zext i1 %50 to i32
  store i32 %51, ptr %8, align 4, !tbaa !14
  call void @llvm.lifetime.end.p0(i64 8, ptr %10) #6
  call void @llvm.lifetime.end.p0(i64 8, ptr %9) #6
  br label %52

52:                                               ; preds = %49, %33
  br label %53

53:                                               ; preds = %52
  %54 = load i32, ptr %6, align 4, !tbaa !14
  %55 = add nsw i32 %54, 1
  store i32 %55, ptr %6, align 4, !tbaa !14
  br label %14, !llvm.loop !28

56:                                               ; preds = %14
  %57 = load ptr, ptr %4, align 8, !tbaa !4
  %58 = load i32, ptr %8, align 4, !tbaa !14
  %59 = call i32 @pushresult(ptr noundef %57, i32 noundef %58, ptr noundef null)
  call void @llvm.lifetime.end.p0(i64 4, ptr %8) #6
  call void @llvm.lifetime.end.p0(i64 4, ptr %7) #6
  ret i32 %59
}