; Function Attrs: nounwind uwtable
define internal fastcc range(i32 1, 4) i32 @g_write(ptr noundef %0, ptr noundef captures(none) %1, i32 noundef range(i32 1, 3) %2) unnamed_addr #0 {
  %4 = alloca i64, align 8
  %5 = tail call i32 @lua_gettop(ptr noundef %0) #9
  %.01619 = add nsw i32 %5, -1
  %.not20 = icmp eq i32 %.01619, 0
  br i1 %.not20, label %._crit_edge.thread, label %.lr.ph

.lr.ph:                                           ; preds = %3, %.lr.ph.backedge
  %.01623 = phi i32 [ %.01623.be, %.lr.ph.backedge ], [ %.01619, %3 ]
  %.022 = phi i32 [ %.022.be, %.lr.ph.backedge ], [ %2, %3 ]
  %.01521 = phi i32 [ %.01521.be, %.lr.ph.backedge ], [ 1, %3 ]
  %6 = call i32 @lua_type(ptr noundef %0, i32 noundef %.022) #9
  %7 = icmp eq i32 %6, 3
  br i1 %7, label %8, label %14

8:                                                ; preds = %.lr.ph
  %.not18 = icmp eq i32 %.01521, 0
  br i1 %.not18, label %.thread, label %9

9:                                                ; preds = %8
  %10 = call double @lua_tonumber(ptr noundef %0, i32 noundef %.022) #9
  %11 = call i32 (ptr, ptr, ...) @fprintf(ptr noundef %1, ptr noundef nonnull @.str.31, double noundef %10) #9
  %12 = icmp sgt i32 %11, 0
  %13 = zext i1 %12 to i32
  br label %24

14:                                               ; preds = %.lr.ph
  call void @llvm.lifetime.start.p0(i64 8, ptr nonnull %4) #9
  %15 = call ptr @luaL_checklstring(ptr noundef %0, i32 noundef %.022, ptr noundef nonnull %4) #9
  %.not17 = icmp eq i32 %.01521, 0
  br i1 %.not17, label %22, label %16

16:                                               ; preds = %14
  %17 = load i64, ptr %4, align 8, !tbaa !21
  %18 = call i64 @fwrite(ptr noundef %15, i64 noundef 1, i64 noundef %17, ptr noundef %1)
  %19 = load i64, ptr %4, align 8, !tbaa !21
  %20 = icmp eq i64 %18, %19
  %21 = zext i1 %20 to i32
  br label %22

22:                                               ; preds = %16, %14
  %23 = phi i32 [ 0, %14 ], [ %21, %16 ]
  call void @llvm.lifetime.end.p0(i64 8, ptr nonnull %4) #9
  br label %24

24:                                               ; preds = %9, %22
  %.1 = phi i32 [ %23, %22 ], [ %13, %9 ]
  %.016 = add nsw i32 %.01623, -1
  %.not = icmp eq i32 %.016, 0
  br i1 %.not, label %._crit_edge, label %.lr.ph.backedge

.lr.ph.backedge:                                  ; preds = %24, %.thread
  %.01623.be = phi i32 [ %.016, %24 ], [ %.01626, %.thread ]
  %.01521.be = phi i32 [ %.1, %24 ], [ 0, %.thread ]
  %.022.be = add nuw nsw i32 %.022, 1
  br label %.lr.ph, !llvm.loop !23

.thread:                                          ; preds = %8
  %.01626 = add nsw i32 %.01623, -1
  %.not27 = icmp eq i32 %.01626, 0
  br i1 %.not27, label %._crit_edge.thread29, label %.lr.ph.backedge

._crit_edge:                                      ; preds = %24
  %25 = icmp eq i32 %.1, 0
  br i1 %25, label %._crit_edge.thread29, label %._crit_edge.thread

._crit_edge.thread:                               ; preds = %3, %._crit_edge
  call void @lua_pushboolean(ptr noundef %0, i32 noundef 1) #9
  br label %pushresult.exit

._crit_edge.thread29:                             ; preds = %.thread, %._crit_edge
  %26 = tail call ptr @__errno_location() #10
  %27 = load i32, ptr %26, align 4, !tbaa !9
  call void @lua_pushnil(ptr noundef %0) #9
  %28 = call ptr @strerror(i32 noundef %27) #9
  %29 = call ptr (ptr, ptr, ...) @lua_pushfstring(ptr noundef %0, ptr noundef nonnull @.str.19, ptr noundef %28) #9
  %30 = sext i32 %27 to i64
  call void @lua_pushinteger(ptr noundef %0, i64 noundef %30) #9
  br label %pushresult.exit

pushresult.exit:                                  ; preds = %._crit_edge.thread, %._crit_edge.thread29
  %.0.i = phi i32 [ 1, %._crit_edge.thread ], [ 3, %._crit_edge.thread29 ]
  ret i32 %.0.i
}